target datalayout = "e-m:e-p270:32:32-p271:32:32-p272:64:64-i64:64-i128:128-f80:128-n8:16:32:64-S128"
target triple = "x86_64-unknown-linux-gnu"

; Function Attrs: mustprogress nounwind uwtable
define linkonce_odr noundef float @_ZSt3powff(float noundef %__x, float noundef %__y) #1 comdat {
entry:
  %__x.addr = alloca float, align 4
  %__y.addr = alloca float, align 4
  store float %__x, ptr %__x.addr, align 4
  store float %__y, ptr %__y.addr, align 4
  %0 = load float, ptr %__x.addr, align 4
  %1 = load float, ptr %__y.addr, align 4
  %2 = call float @llvm.pow.f32(float %0, float %1)
  ret float %2
}

; Function Attrs: mustprogress nounwind uwtable
define linkonce_odr noundef zeroext i16 @_ZNSt14numeric_limitsItE3maxEv() #1 comdat align 2 {
entry:
  ret i16 -1
}

; Function Attrs: mustprogress uwtable
define internal void @_ZN18OpenImageIO_v2_6_0L18png_associateAlphaItEEvPT_iiif(ptr noundef %data, i32 noundef %size, i32 noundef %channels, i32 noundef %alpha_channel, float noundef %gamma) #6 {
entry:
  %data.addr = alloca ptr, align 8
  %size.addr = alloca i32, align 4
  %channels.addr = alloca i32, align 4
  %alpha_channel.addr = alloca i32, align 4
  %gamma.addr = alloca float, align 4
  %max = alloca i16, align 2
  %x = alloca i32, align 4
  %c = alloca i32, align 4
  %f = alloca i32, align 4
  %inv_max = alloca float, align 4
  %x21 = alloca i32, align 4
  %alpha_associate = alloca float, align 4
  %c31 = alloca i32, align 4
  store ptr %data, ptr %data.addr, align 8
  store i32 %size, ptr %size.addr, align 4
  store i32 %channels, ptr %channels.addr, align 4
  store i32 %alpha_channel, ptr %alpha_channel.addr, align 4
  store float %gamma, ptr %gamma.addr, align 4
  %call = call noundef zeroext i16 @_ZNSt14numeric_limitsItE3maxEv() #5
  store i16 %call, ptr %max, align 2
  %0 = load float, ptr %gamma.addr, align 4
  %cmp = fcmp oeq float %0, 1.000000e+00
  br i1 %cmp, label %if.then, label %if.else

if.then:                                          ; preds = %entry
  store i32 0, ptr %x, align 4
  br label %for.cond

for.cond:                                         ; preds = %for.inc14, %if.then
  %1 = load i32, ptr %x, align 4
  %2 = load i32, ptr %size.addr, align 4
  %cmp1 = icmp slt i32 %1, %2
  br i1 %cmp1, label %for.body, label %for.end16

for.body:                                         ; preds = %for.cond
  store i32 0, ptr %c, align 4
  br label %for.cond2

for.cond2:                                        ; preds = %for.inc, %for.body
  %3 = load i32, ptr %c, align 4
  %4 = load i32, ptr %channels.addr, align 4
  %cmp3 = icmp slt i32 %3, %4
  br i1 %cmp3, label %for.body4, label %for.end

for.body4:                                        ; preds = %for.cond2
  %5 = load i32, ptr %c, align 4
  %6 = load i32, ptr %alpha_channel.addr, align 4
  %cmp5 = icmp ne i32 %5, %6
  br i1 %cmp5, label %if.then6, label %if.end

if.then6:                                         ; preds = %for.body4
  %7 = load ptr, ptr %data.addr, align 8
  %8 = load i32, ptr %c, align 4
  %idxprom = sext i32 %8 to i64
  %arrayidx = getelementptr inbounds i16, ptr %7, i64 %idxprom
  %9 = load i16, ptr %arrayidx, align 2
  %conv = zext i16 %9 to i32
  store i32 %conv, ptr %f, align 4
  %10 = load i32, ptr %f, align 4
  %11 = load ptr, ptr %data.addr, align 8
  %12 = load i32, ptr %alpha_channel.addr, align 4
  %idxprom7 = sext i32 %12 to i64
  %arrayidx8 = getelementptr inbounds i16, ptr %11, i64 %idxprom7
  %13 = load i16, ptr %arrayidx8, align 2
  %conv9 = zext i16 %13 to i32
  %mul = mul i32 %10, %conv9
  %14 = load i16, ptr %max, align 2
  %conv10 = zext i16 %14 to i32
  %div = udiv i32 %mul, %conv10
  %conv11 = trunc i32 %div to i16
  %15 = load ptr, ptr %data.addr, align 8
  %16 = load i32, ptr %c, align 4
  %idxprom12 = sext i32 %16 to i64
  %arrayidx13 = getelementptr inbounds i16, ptr %15, i64 %idxprom12
  store i16 %conv11, ptr %arrayidx13, align 2
  br label %if.end

if.end:                                           ; preds = %if.then6, %for.body4
  br label %for.inc

for.inc:                                          ; preds = %if.end
  %17 = load i32, ptr %c, align 4
  %inc = add nsw i32 %17, 1
  store i32 %inc, ptr %c, align 4
  br label %for.cond2, !llvm.loop !8

for.end:                                          ; preds = %for.cond2
  br label %for.inc14

for.inc14:                                        ; preds = %for.end
  %18 = load i32, ptr %x, align 4
  %inc15 = add nsw i32 %18, 1
  store i32 %inc15, ptr %x, align 4
  %19 = load i32, ptr %channels.addr, align 4
  %20 = load ptr, ptr %data.addr, align 8
  %idx.ext = sext i32 %19 to i64
  %add.ptr = getelementptr inbounds i16, ptr %20, i64 %idx.ext
  store ptr %add.ptr, ptr %data.addr, align 8
  br label %for.cond, !llvm.loop !9

for.end16:                                        ; preds = %for.cond
  br label %if.end54

if.else:                                          ; preds = %entry
  %21 = load i16, ptr %max, align 2
  %conv17 = zext i16 %21 to i32
  %conv18 = sitofp i32 %conv17 to double
  %div19 = fdiv double 1.000000e+00, %conv18
  %conv20 = fptrunc double %div19 to float
  store float %conv20, ptr %inv_max, align 4
  store i32 0, ptr %x21, align 4
  br label %for.cond22

for.cond22:                                       ; preds = %for.inc49, %if.else
  %22 = load i32, ptr %x21, align 4
  %23 = load i32, ptr %size.addr, align 4
  %cmp23 = icmp slt i32 %22, %23
  br i1 %cmp23, label %for.body24, label %for.end53

for.body24:                                       ; preds = %for.cond22
  %24 = load ptr, ptr %data.addr, align 8
  %25 = load i32, ptr %alpha_channel.addr, align 4
  %idxprom25 = sext i32 %25 to i64
  %arrayidx26 = getelementptr inbounds i16, ptr %24, i64 %idxprom25
  %26 = load i16, ptr %arrayidx26, align 2
  %conv27 = zext i16 %26 to i32
  %conv28 = sitofp i32 %conv27 to float
  %27 = load float, ptr %inv_max, align 4
  %mul29 = fmul float %conv28, %27
  %28 = load float, ptr %gamma.addr, align 4
  %call30 = call noundef float @_ZSt3powff(float noundef %mul29, float noundef %28)
  store float %call30, ptr %alpha_associate, align 4
  store i32 0, ptr %c31, align 4
  br label %for.cond32

for.cond32:                                       ; preds = %for.inc46, %for.body24
  %29 = load i32, ptr %c31, align 4
  %30 = load i32, ptr %channels.addr, align 4
  %cmp33 = icmp slt i32 %29, %30
  br i1 %cmp33, label %for.body34, label %for.end48

for.body34:                                       ; preds = %for.cond32
  %31 = load i32, ptr %c31, align 4
  %32 = load i32, ptr %alpha_channel.addr, align 4
  %cmp35 = icmp ne i32 %31, %32
  br i1 %cmp35, label %if.then36, label %if.end45

if.then36:                                        ; preds = %for.body34
  %33 = load ptr, ptr %data.addr, align 8
  %34 = load i32, ptr %c31, align 4
  %idxprom37 = sext i32 %34 to i64
  %arrayidx38 = getelementptr inbounds i16, ptr %33, i64 %idxprom37
  %35 = load i16, ptr %arrayidx38, align 2
  %conv39 = zext i16 %35 to i32
  %conv40 = sitofp i32 %conv39 to float
  %36 = load float, ptr %alpha_associate, align 4
  %mul41 = fmul float %conv40, %36
  %conv42 = fptoui float %mul41 to i16
  %37 = load ptr, ptr %data.addr, align 8
  %38 = load i32, ptr %c31, align 4
  %idxprom43 = sext i32 %38 to i64
  %arrayidx44 = getelementptr inbounds i16, ptr %37, i64 %idxprom43
  store i16 %conv42, ptr %arrayidx44, align 2
  br label %if.end45

if.end45:                                         ; preds = %if.then36, %for.body34
  br label %for.inc46

for.inc46:                                        ; preds = %if.end45
  %39 = load i32, ptr %c31, align 4
  %inc47 = add nsw i32 %39, 1
  store i32 %inc47, ptr %c31, align 4
  br label %for.cond32, !llvm.loop !10

for.end48:                                        ; preds = %for.cond32
  br label %for.inc49

for.inc49:                                        ; preds = %for.end48
  %40 = load i32, ptr %x21, align 4
  %inc50 = add nsw i32 %40, 1
  store i32 %inc50, ptr %x21, align 4
  %41 = load i32, ptr %channels.addr, align 4
  %42 = load ptr, ptr %data.addr, align 8
  %idx.ext51 = sext i32 %41 to i64
  %add.ptr52 = getelementptr inbounds i16, ptr %42, i64 %idx.ext51
  store ptr %add.ptr52, ptr %data.addr, align 8
  br label %for.cond22, !llvm.loop !11

for.end53:                                        ; preds = %for.cond22
  br label %if.end54

if.end54:                                         ; preds = %for.end53, %for.end16
  ret void
}