; Function Attrs: mustprogress nofree norecurse nosync nounwind memory(readwrite, inaccessiblemem: none) uwtable
define internal fastcc void @_ZN18OpenImageIO_v2_6_0L18png_associateAlphaItEEvPT_iiif(ptr nocapture noundef %data, i32 noundef %size, i32 noundef %channels, i32 noundef %alpha_channel, float noundef %gamma) unnamed_addr #10 {
entry:
  %cmp = fcmp oeq float %gamma, 1.000000e+00
  %cmp135 = icmp sgt i32 %size, 0
  br i1 %cmp, label %for.cond.preheader, label %for.cond22.preheader

for.cond22.preheader:                             ; preds = %entry
  br i1 %cmp135, label %for.body24.lr.ph, label %if.end54

for.body24.lr.ph:                                 ; preds = %for.cond22.preheader
  %idxprom25 = sext i32 %alpha_channel to i64
  %cmp3328 = icmp sgt i32 %channels, 0
  %idx.ext51 = sext i32 %channels to i64
  br i1 %cmp3328, label %for.body24.us.preheader, label %if.end54

for.body24.us.preheader:                          ; preds = %for.body24.lr.ph
  %0 = zext i32 %alpha_channel to i64
  %wide.trip.count = zext nneg i32 %channels to i64
  br label %for.body24.us

for.body24.us:                                    ; preds = %for.body24.us.preheader, %for.cond32.for.inc49_crit_edge.us
  %data.addr.132.us = phi ptr [ %add.ptr52.us, %for.cond32.for.inc49_crit_edge.us ], [ %data, %for.body24.us.preheader ]
  %x21.031.us = phi i32 [ %inc50.us, %for.cond32.for.inc49_crit_edge.us ], [ 0, %for.body24.us.preheader ]
  %arrayidx26.us = getelementptr inbounds i16, ptr %data.addr.132.us, i64 %idxprom25
  %1 = load i16, ptr %arrayidx26.us, align 2
  %conv28.us = uitofp i16 %1 to float
  %mul29.us = fmul float %conv28.us, 0x3EF0001000000000
  %2 = tail call noundef float @llvm.pow.f32(float %mul29.us, float %gamma)
  br label %for.body34.us

for.body34.us:                                    ; preds = %for.body24.us, %for.inc46.us
  %indvars.iv = phi i64 [ 0, %for.body24.us ], [ %indvars.iv.next, %for.inc46.us ]
  %cmp35.not.us = icmp eq i64 %indvars.iv, %0
  br i1 %cmp35.not.us, label %for.inc46.us, label %if.then36.us

if.then36.us:                                     ; preds = %for.body34.us
  %arrayidx38.us = getelementptr inbounds i16, ptr %data.addr.132.us, i64 %indvars.iv
  %3 = load i16, ptr %arrayidx38.us, align 2
  %conv40.us = uitofp i16 %3 to float
  %mul41.us = fmul float %2, %conv40.us
  %conv42.us = fptoui float %mul41.us to i16
  store i16 %conv42.us, ptr %arrayidx38.us, align 2
  br label %for.inc46.us

for.inc46.us:                                     ; preds = %if.then36.us, %for.body34.us
  %indvars.iv.next = add nuw nsw i64 %indvars.iv, 1
  %exitcond.not = icmp eq i64 %indvars.iv.next, %wide.trip.count
  br i1 %exitcond.not, label %for.cond32.for.inc49_crit_edge.us, label %for.body34.us, !llvm.loop !31

for.cond32.for.inc49_crit_edge.us:                ; preds = %for.inc46.us
  %inc50.us = add nuw nsw i32 %x21.031.us, 1
  %add.ptr52.us = getelementptr inbounds i16, ptr %data.addr.132.us, i64 %idx.ext51
  %exitcond42.not = icmp eq i32 %inc50.us, %size
  br i1 %exitcond42.not, label %if.end54, label %for.body24.us, !llvm.loop !32

for.cond.preheader:                               ; preds = %entry
  br i1 %cmp135, label %for.cond2.preheader.lr.ph, label %if.end54

for.cond2.preheader.lr.ph:                        ; preds = %for.cond.preheader
  %cmp333 = icmp sgt i32 %channels, 0
  %idxprom7 = sext i32 %alpha_channel to i64
  %idx.ext = sext i32 %channels to i64
  br i1 %cmp333, label %for.cond2.preheader.us.preheader, label %if.end54

for.cond2.preheader.us.preheader:                 ; preds = %for.cond2.preheader.lr.ph
  %4 = zext i32 %alpha_channel to i64
  %wide.trip.count46 = zext nneg i32 %channels to i64
  br label %for.cond2.preheader.us

for.cond2.preheader.us:                           ; preds = %for.cond2.preheader.us.preheader, %for.cond2.for.inc14_crit_edge.us
  %data.addr.037.us = phi ptr [ %add.ptr.us, %for.cond2.for.inc14_crit_edge.us ], [ %data, %for.cond2.preheader.us.preheader ]
  %x.036.us = phi i32 [ %inc15.us, %for.cond2.for.inc14_crit_edge.us ], [ 0, %for.cond2.preheader.us.preheader ]
  %arrayidx8.us = getelementptr inbounds i16, ptr %data.addr.037.us, i64 %idxprom7
  br label %for.body4.us

for.body4.us:                                     ; preds = %for.cond2.preheader.us, %for.inc.us
  %indvars.iv43 = phi i64 [ 0, %for.cond2.preheader.us ], [ %indvars.iv.next44, %for.inc.us ]
  %cmp5.not.us = icmp eq i64 %indvars.iv43, %4
  br i1 %cmp5.not.us, label %for.inc.us, label %if.then6.us

if.then6.us:                                      ; preds = %for.body4.us
  %arrayidx.us = getelementptr inbounds i16, ptr %data.addr.037.us, i64 %indvars.iv43
  %5 = load i16, ptr %arrayidx.us, align 2
  %conv.us = zext i16 %5 to i32
  %6 = load i16, ptr %arrayidx8.us, align 2
  %conv9.us = zext i16 %6 to i32
  %mul.us = mul nuw i32 %conv9.us, %conv.us
  %div.us = udiv i32 %mul.us, 65535
  %conv11.us = trunc i32 %div.us to i16
  store i16 %conv11.us, ptr %arrayidx.us, align 2
  br label %for.inc.us

for.inc.us:                                       ; preds = %if.then6.us, %for.body4.us
  %indvars.iv.next44 = add nuw nsw i64 %indvars.iv43, 1
  %exitcond47.not = icmp eq i64 %indvars.iv.next44, %wide.trip.count46
  br i1 %exitcond47.not, label %for.cond2.for.inc14_crit_edge.us, label %for.body4.us, !llvm.loop !33

for.cond2.for.inc14_crit_edge.us:                 ; preds = %for.inc.us
  %inc15.us = add nuw nsw i32 %x.036.us, 1
  %add.ptr.us = getelementptr inbounds i16, ptr %data.addr.037.us, i64 %idx.ext
  %exitcond48.not = icmp eq i32 %inc15.us, %size
  br i1 %exitcond48.not, label %if.end54, label %for.cond2.preheader.us, !llvm.loop !34

if.end54:                                         ; preds = %for.cond32.for.inc49_crit_edge.us, %for.cond2.for.inc14_crit_edge.us, %for.cond2.preheader.lr.ph, %for.body24.lr.ph, %for.cond22.preheader, %for.cond.preheader
  ret void
}